; Function Attrs: mustprogress nofree norecurse nosync nounwind willreturn memory(read, inaccessiblemem: none) uwtable
define hidden noundef zeroext i1 @_ZN17CirclesGridFinder21doesIntersectionExistERKSt6vectorINS_7SegmentESaIS1_EERKS0_IS3_SaIS3_EE(ptr nocapture noundef nonnull readonly align 8 dereferenceable(24) %0, ptr nocapture noundef nonnull readonly align 8 dereferenceable(24) %1) local_unnamed_addr #16 align 2 {
  %3 = getelementptr inbounds i8, ptr %0, i64 8
  %4 = load ptr, ptr %3, align 8
  %5 = load ptr, ptr %0, align 8
  %6 = ptrtoint ptr %4 to i64
  %7 = ptrtoint ptr %5 to i64
  %8 = sub i64 %6, %7
  %9 = ashr exact i64 %8, 4
  %.not40 = icmp eq ptr %4, %5
  br i1 %.not40, label %.loopexit, label %.preheader20.lr.ph

.preheader20.lr.ph:                               ; preds = %2
  %10 = getelementptr inbounds i8, ptr %1, i64 8
  %11 = load ptr, ptr %10, align 8
  %12 = load ptr, ptr %1, align 8
  %.not = icmp eq ptr %11, %12
  br i1 %.not, label %.preheader20.preheader, label %.preheader20.us.preheader

.preheader20.us.preheader:                        ; preds = %.preheader20.lr.ph
  %13 = ptrtoint ptr %11 to i64
  %14 = ptrtoint ptr %12 to i64
  %15 = sub i64 %13, %14
  %16 = sdiv exact i64 %15, 24
  %umax34 = tail call i64 @llvm.umax.i64(i64 %16, i64 1)
  %umax36 = tail call i64 @llvm.umax.i64(i64 %9, i64 1)
  br label %.preheader20.us

.preheader20.preheader:                           ; preds = %.preheader20.lr.ph
  %umax38 = tail call i64 @llvm.umax.i64(i64 %9, i64 1)
  br label %.preheader20

.preheader20.us:                                  ; preds = %.preheader20.us.preheader, %._crit_edge25.us
  %17 = phi i1 [ %62, %._crit_edge25.us ], [ true, %.preheader20.us.preheader ]
  %.01726.us = phi i64 [ %61, %._crit_edge25.us ], [ 0, %.preheader20.us.preheader ]
  %18 = getelementptr inbounds %"struct.CirclesGridFinder::Segment", ptr %5, i64 %.01726.us
  %.sroa.22.0..sroa_idx.us = getelementptr inbounds i8, ptr %18, i64 8
  br label %.preheader.us

19:                                               ; preds = %22
  %20 = add nuw i64 %.01923.us, 1
  %exitcond.not = icmp eq i64 %20, %umax
  br i1 %exitcond.not, label %._crit_edge.us, label %22, !llvm.loop !288

._crit_edge.us:                                   ; preds = %19, %.preheader.us
  %21 = add nuw i64 %.01824.us, 1
  %exitcond35.not = icmp eq i64 %21, %umax34
  br i1 %exitcond35.not, label %._crit_edge25.us, label %.preheader.us, !llvm.loop !289

22:                                               ; preds = %.lr.ph.us, %19
  %.01923.us = phi i64 [ 0, %.lr.ph.us ], [ %20, %19 ]
  %23 = getelementptr inbounds %"struct.CirclesGridFinder::Segment", ptr %54, i64 %.01923.us
  %.sroa.0.0.copyload.us = load <2 x float>, ptr %23, align 4
  %.sroa.2.0..sroa_idx.us = getelementptr inbounds i8, ptr %23, i64 8
  %.sroa.2.0.copyload.us = load <2 x float>, ptr %.sroa.2.0..sroa_idx.us, align 4
  %24 = fsub <2 x float> %.sroa.2.0.copyload.us, %.sroa.0.0.copyload.us
  %25 = fsub <2 x float> %.sroa.22.0.copyload.us, %.sroa.0.0.copyload.us
  %26 = shufflevector <2 x float> %.sroa.0.0.copyload.us, <2 x float> %.sroa.01.0.copyload.us, <2 x i32> <i32 0, i32 2>
  %27 = shufflevector <2 x float> %.sroa.01.0.copyload.us, <2 x float> %.sroa.0.0.copyload.us, <2 x i32> <i32 0, i32 2>
  %28 = fsub <2 x float> %26, %27
  %29 = shufflevector <2 x float> %.sroa.0.0.copyload.us, <2 x float> %.sroa.01.0.copyload.us, <2 x i32> <i32 1, i32 3>
  %30 = shufflevector <2 x float> %.sroa.01.0.copyload.us, <2 x float> %.sroa.0.0.copyload.us, <2 x i32> <i32 1, i32 3>
  %31 = fsub <2 x float> %29, %30
  %32 = fneg <2 x float> %31
  %33 = shufflevector <2 x float> %59, <2 x float> %24, <2 x i32> <i32 0, i32 2>
  %34 = fmul <2 x float> %33, %32
  %35 = shufflevector <2 x float> %.sroa.01.0.copyload.us, <2 x float> %.sroa.0.0.copyload.us, <2 x i32> <i32 0, i32 3>
  %36 = fsub <2 x float> %.sroa.2.0.copyload.us, %35
  %37 = shufflevector <2 x float> %36, <2 x float> %60, <2 x i32> <i32 3, i32 1>
  %38 = tail call <2 x float> @llvm.fmuladd.v2f32(<2 x float> %28, <2 x float> %37, <2 x float> %34)
  %39 = fpext <2 x float> %38 to <2 x double>
  %40 = shufflevector <2 x float> %.sroa.2.0.copyload.us, <2 x float> %.sroa.22.0.copyload.us, <2 x i32> <i32 1, i32 3>
  %41 = fsub <2 x float> %40, %30
  %42 = fneg <2 x float> %41
  %43 = fmul <2 x float> %33, %42
  %44 = shufflevector <2 x float> %37, <2 x float> %25, <2 x i32> <i32 0, i32 2>
  %45 = tail call <2 x float> @llvm.fmuladd.v2f32(<2 x float> %36, <2 x float> %44, <2 x float> %43)
  %46 = fpext <2 x float> %45 to <2 x double>
  %47 = fmul <2 x double> %39, %46
  %48 = fcmp olt <2 x double> %47, zeroinitializer
  %shift = shufflevector <2 x i1> %48, <2 x i1> poison, <2 x i32> <i32 1, i32 poison>
  %49 = and <2 x i1> %shift, %48
  %50 = extractelement <2 x i1> %49, i64 0
  br i1 %50, label %.loopexit, label %19

.preheader.us:                                    ; preds = %.preheader20.us, %._crit_edge.us
  %.01824.us = phi i64 [ 0, %.preheader20.us ], [ %21, %._crit_edge.us ]
  %51 = getelementptr inbounds %"class.std::vector.79", ptr %12, i64 %.01824.us
  %52 = getelementptr inbounds i8, ptr %51, i64 8
  %53 = load ptr, ptr %52, align 8
  %54 = load ptr, ptr %51, align 8
  %.not28 = icmp eq ptr %53, %54
  br i1 %.not28, label %._crit_edge.us, label %.lr.ph.us

.lr.ph.us:                                        ; preds = %.preheader.us
  %55 = ptrtoint ptr %53 to i64
  %56 = ptrtoint ptr %54 to i64
  %57 = sub i64 %55, %56
  %58 = ashr exact i64 %57, 4
  %.sroa.01.0.copyload.us = load <2 x float>, ptr %18, align 4
  %.sroa.22.0.copyload.us = load <2 x float>, ptr %.sroa.22.0..sroa_idx.us, align 4
  %59 = fsub <2 x float> %.sroa.22.0.copyload.us, %.sroa.01.0.copyload.us
  %60 = fsub <2 x float> %.sroa.22.0.copyload.us, %.sroa.01.0.copyload.us
  %umax = tail call i64 @llvm.umax.i64(i64 %58, i64 1)
  br label %22

._crit_edge25.us:                                 ; preds = %._crit_edge.us
  %61 = add nuw i64 %.01726.us, 1
  %62 = icmp ult i64 %61, %9
  %exitcond37.not = icmp eq i64 %61, %umax36
  br i1 %exitcond37.not, label %.loopexit, label %.preheader20.us, !llvm.loop !290

.preheader20:                                     ; preds = %.preheader20.preheader, %.preheader20
  %.01726 = phi i64 [ %63, %.preheader20 ], [ 0, %.preheader20.preheader ]
  %63 = add nuw i64 %.01726, 1
  %exitcond39.not = icmp eq i64 %63, %umax38
  br i1 %exitcond39.not, label %.loopexit.loopexit, label %.preheader20, !llvm.loop !290

.loopexit.loopexit:                               ; preds = %.preheader20
  %64 = icmp ult i64 %63, %9
  br label %.loopexit

.loopexit:                                        ; preds = %._crit_edge25.us, %22, %.loopexit.loopexit, %2
  %65 = phi i1 [ false, %2 ], [ %64, %.loopexit.loopexit ], [ %17, %22 ], [ %62, %._crit_edge25.us ]
  ret i1 %65
}